target datalayout = "e-m:e-p270:32:32-p271:32:32-p272:64:64-i64:64-i128:128-f80:128-n8:16:32:64-S128"
target triple = "x86_64-unknown-linux-gnu"

%struct.Packet = type { ptr, %union.anon.2, ptr, i32, i64, i32, i32, i32, i32, i8, i16, i16, i8 }
%union.anon.2 = type { ptr }

; Function Attrs: nounwind sspstrong uwtable
define internal i32 @seq_sorter(ptr noundef %a, ptr noundef %b, ptr noundef %data) #0 {
entry:
  %a.addr = alloca ptr, align 8
  %b.addr = alloca ptr, align 8
  %data.addr = alloca ptr, align 8
  store ptr %a, ptr %a.addr, align 8
  store ptr %b, ptr %b.addr, align 8
  store ptr %data, ptr %data.addr, align 8
  %0 = load ptr, ptr %b.addr, align 8
  %tcp_seq = getelementptr inbounds %struct.Packet, ptr %0, i32 0, i32 6
  %1 = load i32, ptr %tcp_seq, align 4
  %2 = load ptr, ptr %a.addr, align 8
  %tcp_seq1 = getelementptr inbounds %struct.Packet, ptr %2, i32 0, i32 6
  %3 = load i32, ptr %tcp_seq1, align 4
  %sub = sub i32 %1, %3
  ret i32 %sub
}