; Function Attrs: mustprogress nofree norecurse nosync nounwind sspstrong willreturn memory(argmem: read) uwtable
define internal i32 @seq_sorter(ptr noundef readonly captures(none) %a, ptr noundef readonly captures(none) %b, ptr readnone captures(none) %data) #7 {
entry:
  %tcp_seq = getelementptr inbounds nuw i8, ptr %b, i64 44
  %0 = load i32, ptr %tcp_seq, align 4
  %tcp_seq1 = getelementptr inbounds nuw i8, ptr %a, i64 44
  %1 = load i32, ptr %tcp_seq1, align 4
  %sub = sub i32 %0, %1
  ret i32 %sub
}